target datalayout = "e-m:e-p270:32:32-p271:32:32-p272:64:64-i64:64-i128:128-f80:128-n8:16:32:64-S128"
target triple = "x86_64-pc-linux-gnu"

@.str.1 = private unnamed_addr constant [123 x i8] c"generated/home/dtcxzyw/WorkSpace/Projects/compilers/llvm-opt-benchmark/llvm/llvm-project/libcxxabi/src/cxa_personality.cpp\00", align 1
@.str.7 = private unnamed_addr constant [62 x i8] c"(base != 0) && \22DW_EH_PE_datarel is invalid with a base of 0\22\00", align 1
@__PRETTY_FUNCTION__._ZN10__cxxabiv1L18readEncodedPointerEPPKhhm = private unnamed_addr constant [79 x i8] c"uintptr_t __cxxabiv1::readEncodedPointer(const uint8_t **, uint8_t, uintptr_t)\00", align 1

; Function Attrs: mustprogress nounwind uwtable
define internal noundef i64 @_ZN10__cxxabiv112_GLOBAL__N_117readPointerHelperIlEEmRPKh(ptr noundef nonnull align 8 dereferenceable(8) %0) #4 {
  %2 = alloca ptr, align 8
  %3 = alloca i64, align 8
  store ptr %0, ptr %2, align 8, !tbaa !63
  call void @llvm.lifetime.start.p0(i64 8, ptr %3) #10
  %4 = load ptr, ptr %2, align 8, !tbaa !63
  %5 = load ptr, ptr %4, align 8, !tbaa !42
  call void @llvm.memcpy.p0.p0.i64(ptr align 8 %3, ptr align 1 %5, i64 8, i1 false)
  %6 = load ptr, ptr %2, align 8, !tbaa !63
  %7 = load ptr, ptr %6, align 8, !tbaa !42
  %8 = getelementptr inbounds nuw i8, ptr %7, i64 8
  store ptr %8, ptr %6, align 8, !tbaa !42
  %9 = load i64, ptr %3, align 8, !tbaa !10
  call void @llvm.lifetime.end.p0(i64 8, ptr %3) #10
  ret i64 %9
}

; Function Attrs: mustprogress nounwind uwtable
define internal noundef i64 @_ZN10__cxxabiv112_GLOBAL__N_117readPointerHelperIiEEmRPKh(ptr noundef nonnull align 8 dereferenceable(8) %0) #4 {
  %2 = alloca ptr, align 8
  %3 = alloca i32, align 4
  store ptr %0, ptr %2, align 8, !tbaa !63
  call void @llvm.lifetime.start.p0(i64 4, ptr %3) #10
  %4 = load ptr, ptr %2, align 8, !tbaa !63
  %5 = load ptr, ptr %4, align 8, !tbaa !42
  call void @llvm.memcpy.p0.p0.i64(ptr align 4 %3, ptr align 1 %5, i64 4, i1 false)
  %6 = load ptr, ptr %2, align 8, !tbaa !63
  %7 = load ptr, ptr %6, align 8, !tbaa !42
  %8 = getelementptr inbounds nuw i8, ptr %7, i64 4
  store ptr %8, ptr %6, align 8, !tbaa !42
  %9 = load i32, ptr %3, align 4, !tbaa !4
  %10 = sext i32 %9 to i64
  call void @llvm.lifetime.end.p0(i64 4, ptr %3) #10
  ret i64 %10
}

; Function Attrs: mustprogress nounwind uwtable
define internal noundef i64 @_ZN10__cxxabiv112_GLOBAL__N_117readPointerHelperIsEEmRPKh(ptr noundef nonnull align 8 dereferenceable(8) %0) #4 {
  %2 = alloca ptr, align 8
  %3 = alloca i16, align 2
  store ptr %0, ptr %2, align 8, !tbaa !63
  call void @llvm.lifetime.start.p0(i64 2, ptr %3) #10
  %4 = load ptr, ptr %2, align 8, !tbaa !63
  %5 = load ptr, ptr %4, align 8, !tbaa !42
  call void @llvm.memcpy.p0.p0.i64(ptr align 2 %3, ptr align 1 %5, i64 2, i1 false)
  %6 = load ptr, ptr %2, align 8, !tbaa !63
  %7 = load ptr, ptr %6, align 8, !tbaa !42
  %8 = getelementptr inbounds nuw i8, ptr %7, i64 2
  store ptr %8, ptr %6, align 8, !tbaa !42
  %9 = load i16, ptr %3, align 2, !tbaa !71
  %10 = sext i16 %9 to i64
  call void @llvm.lifetime.end.p0(i64 2, ptr %3) #10
  ret i64 %10
}

; Function Attrs: mustprogress nounwind uwtable
define internal noundef i64 @_ZN10__cxxabiv112_GLOBAL__N_117readPointerHelperIjEEmRPKh(ptr noundef nonnull align 8 dereferenceable(8) %0) #4 {
  %2 = alloca ptr, align 8
  %3 = alloca i32, align 4
  store ptr %0, ptr %2, align 8, !tbaa !63
  call void @llvm.lifetime.start.p0(i64 4, ptr %3) #10
  %4 = load ptr, ptr %2, align 8, !tbaa !63
  %5 = load ptr, ptr %4, align 8, !tbaa !42
  call void @llvm.memcpy.p0.p0.i64(ptr align 4 %3, ptr align 1 %5, i64 4, i1 false)
  %6 = load ptr, ptr %2, align 8, !tbaa !63
  %7 = load ptr, ptr %6, align 8, !tbaa !42
  %8 = getelementptr inbounds nuw i8, ptr %7, i64 4
  store ptr %8, ptr %6, align 8, !tbaa !42
  %9 = load i32, ptr %3, align 4, !tbaa !4
  %10 = zext i32 %9 to i64
  call void @llvm.lifetime.end.p0(i64 4, ptr %3) #10
  ret i64 %10
}

; Function Attrs: mustprogress nounwind uwtable
define internal noundef i64 @_ZN10__cxxabiv112_GLOBAL__N_117readPointerHelperItEEmRPKh(ptr noundef nonnull align 8 dereferenceable(8) %0) #4 {
  %2 = alloca ptr, align 8
  %3 = alloca i16, align 2
  store ptr %0, ptr %2, align 8, !tbaa !63
  call void @llvm.lifetime.start.p0(i64 2, ptr %3) #10
  %4 = load ptr, ptr %2, align 8, !tbaa !63
  %5 = load ptr, ptr %4, align 8, !tbaa !42
  call void @llvm.memcpy.p0.p0.i64(ptr align 2 %3, ptr align 1 %5, i64 2, i1 false)
  %6 = load ptr, ptr %2, align 8, !tbaa !63
  %7 = load ptr, ptr %6, align 8, !tbaa !42
  %8 = getelementptr inbounds nuw i8, ptr %7, i64 2
  store ptr %8, ptr %6, align 8, !tbaa !42
  %9 = load i16, ptr %3, align 2, !tbaa !71
  %10 = zext i16 %9 to i64
  call void @llvm.lifetime.end.p0(i64 2, ptr %3) #10
  ret i64 %10
}

; Function Attrs: mustprogress nounwind uwtable
define internal noundef i64 @_ZN10__cxxabiv1L11readSLEB128EPPKh(ptr noundef %0) #4 {
  %2 = alloca ptr, align 8
  %3 = alloca i64, align 8
  %4 = alloca i64, align 8
  %5 = alloca i8, align 1
  %6 = alloca ptr, align 8
  store ptr %0, ptr %2, align 8, !tbaa !63
  call void @llvm.lifetime.start.p0(i64 8, ptr %3) #10
  store i64 0, ptr %3, align 8, !tbaa !10
  call void @llvm.lifetime.start.p0(i64 8, ptr %4) #10
  store i64 0, ptr %4, align 8, !tbaa !10
  call void @llvm.lifetime.start.p0(i64 1, ptr %5) #10
  call void @llvm.lifetime.start.p0(i64 8, ptr %6) #10
  %7 = load ptr, ptr %2, align 8, !tbaa !63
  %8 = load ptr, ptr %7, align 8, !tbaa !42
  store ptr %8, ptr %6, align 8, !tbaa !42
  br label %9

9:                                                ; preds = %23, %1
  %10 = load ptr, ptr %6, align 8, !tbaa !42
  %11 = getelementptr inbounds nuw i8, ptr %10, i32 1
  store ptr %11, ptr %6, align 8, !tbaa !42
  %12 = load i8, ptr %10, align 1, !tbaa !43
  store i8 %12, ptr %5, align 1, !tbaa !43
  %13 = load i8, ptr %5, align 1, !tbaa !43
  %14 = zext i8 %13 to i32
  %15 = and i32 %14, 127
  %16 = sext i32 %15 to i64
  %17 = load i64, ptr %4, align 8, !tbaa !10
  %18 = shl i64 %16, %17
  %19 = load i64, ptr %3, align 8, !tbaa !10
  %20 = or i64 %19, %18
  store i64 %20, ptr %3, align 8, !tbaa !10
  %21 = load i64, ptr %4, align 8, !tbaa !10
  %22 = add i64 %21, 7
  store i64 %22, ptr %4, align 8, !tbaa !10
  br label %23

23:                                               ; preds = %9
  %24 = load i8, ptr %5, align 1, !tbaa !43
  %25 = zext i8 %24 to i32
  %26 = and i32 %25, 128
  %27 = icmp ne i32 %26, 0
  br i1 %27, label %9, label %28, !llvm.loop !70

28:                                               ; preds = %23
  %29 = load ptr, ptr %6, align 8, !tbaa !42
  %30 = load ptr, ptr %2, align 8, !tbaa !63
  store ptr %29, ptr %30, align 8, !tbaa !42
  %31 = load i8, ptr %5, align 1, !tbaa !43
  %32 = zext i8 %31 to i32
  %33 = and i32 %32, 64
  %34 = icmp ne i32 %33, 0
  br i1 %34, label %35, label %43

35:                                               ; preds = %28
  %36 = load i64, ptr %4, align 8, !tbaa !10
  %37 = icmp ult i64 %36, 64
  br i1 %37, label %38, label %43

38:                                               ; preds = %35
  %39 = load i64, ptr %4, align 8, !tbaa !10
  %40 = shl i64 -1, %39
  %41 = load i64, ptr %3, align 8, !tbaa !10
  %42 = or i64 %41, %40
  store i64 %42, ptr %3, align 8, !tbaa !10
  br label %43

43:                                               ; preds = %38, %35, %28
  %44 = load i64, ptr %3, align 8, !tbaa !10
  call void @llvm.lifetime.end.p0(i64 8, ptr %6) #10
  call void @llvm.lifetime.end.p0(i64 1, ptr %5) #10
  call void @llvm.lifetime.end.p0(i64 8, ptr %4) #10
  call void @llvm.lifetime.end.p0(i64 8, ptr %3) #10
  ret i64 %44
}

; Function Attrs: mustprogress nounwind uwtable
define internal noundef i64 @_ZN10__cxxabiv1L11readULEB128EPPKh(ptr noundef %0) #4 {
  %2 = alloca ptr, align 8
  %3 = alloca i64, align 8
  %4 = alloca i64, align 8
  %5 = alloca i8, align 1
  %6 = alloca ptr, align 8
  store ptr %0, ptr %2, align 8, !tbaa !63
  call void @llvm.lifetime.start.p0(i64 8, ptr %3) #10
  store i64 0, ptr %3, align 8, !tbaa !10
  call void @llvm.lifetime.start.p0(i64 8, ptr %4) #10
  store i64 0, ptr %4, align 8, !tbaa !10
  call void @llvm.lifetime.start.p0(i64 1, ptr %5) #10
  call void @llvm.lifetime.start.p0(i64 8, ptr %6) #10
  %7 = load ptr, ptr %2, align 8, !tbaa !63
  %8 = load ptr, ptr %7, align 8, !tbaa !42
  store ptr %8, ptr %6, align 8, !tbaa !42
  br label %9

9:                                                ; preds = %23, %1
  %10 = load ptr, ptr %6, align 8, !tbaa !42
  %11 = getelementptr inbounds nuw i8, ptr %10, i32 1
  store ptr %11, ptr %6, align 8, !tbaa !42
  %12 = load i8, ptr %10, align 1, !tbaa !43
  store i8 %12, ptr %5, align 1, !tbaa !43
  %13 = load i8, ptr %5, align 1, !tbaa !43
  %14 = zext i8 %13 to i32
  %15 = and i32 %14, 127
  %16 = sext i32 %15 to i64
  %17 = load i64, ptr %4, align 8, !tbaa !10
  %18 = shl i64 %16, %17
  %19 = load i64, ptr %3, align 8, !tbaa !10
  %20 = or i64 %19, %18
  store i64 %20, ptr %3, align 8, !tbaa !10
  %21 = load i64, ptr %4, align 8, !tbaa !10
  %22 = add i64 %21, 7
  store i64 %22, ptr %4, align 8, !tbaa !10
  br label %23

23:                                               ; preds = %9
  %24 = load i8, ptr %5, align 1, !tbaa !43
  %25 = zext i8 %24 to i32
  %26 = and i32 %25, 128
  %27 = icmp ne i32 %26, 0
  br i1 %27, label %9, label %28, !llvm.loop !66

28:                                               ; preds = %23
  %29 = load ptr, ptr %6, align 8, !tbaa !42
  %30 = load ptr, ptr %2, align 8, !tbaa !63
  store ptr %29, ptr %30, align 8, !tbaa !42
  %31 = load i64, ptr %3, align 8, !tbaa !10
  call void @llvm.lifetime.end.p0(i64 8, ptr %6) #10
  call void @llvm.lifetime.end.p0(i64 1, ptr %5) #10
  call void @llvm.lifetime.end.p0(i64 8, ptr %4) #10
  call void @llvm.lifetime.end.p0(i64 8, ptr %3) #10
  ret i64 %31
}

; Function Attrs: mustprogress nounwind uwtable
define internal noundef i64 @_ZN10__cxxabiv112_GLOBAL__N_117readPointerHelperImEEmRPKh(ptr noundef nonnull align 8 dereferenceable(8) %0) #4 {
  %2 = alloca ptr, align 8
  %3 = alloca i64, align 8
  store ptr %0, ptr %2, align 8, !tbaa !63
  call void @llvm.lifetime.start.p0(i64 8, ptr %3) #10
  %4 = load ptr, ptr %2, align 8, !tbaa !63
  %5 = load ptr, ptr %4, align 8, !tbaa !42
  call void @llvm.memcpy.p0.p0.i64(ptr align 8 %3, ptr align 1 %5, i64 8, i1 false)
  %6 = load ptr, ptr %2, align 8, !tbaa !63
  %7 = load ptr, ptr %6, align 8, !tbaa !42
  %8 = getelementptr inbounds nuw i8, ptr %7, i64 8
  store ptr %8, ptr %6, align 8, !tbaa !42
  %9 = load i64, ptr %3, align 8, !tbaa !10
  call void @llvm.lifetime.end.p0(i64 8, ptr %3) #10
  ret i64 %9
}

; Function Attrs: mustprogress uwtable
define internal noundef i64 @_ZN10__cxxabiv1L18readEncodedPointerEPPKhhm(ptr noundef %0, i8 noundef zeroext %1, i64 noundef %2) #0 {
  %4 = alloca i64, align 8
  %5 = alloca ptr, align 8
  %6 = alloca i8, align 1
  %7 = alloca i64, align 8
  %8 = alloca i64, align 8
  %9 = alloca i32, align 4
  %10 = alloca ptr, align 8
  store ptr %0, ptr %5, align 8, !tbaa !63
  store i8 %1, ptr %6, align 1, !tbaa !43
  store i64 %2, ptr %7, align 8, !tbaa !10
  call void @llvm.lifetime.start.p0(i64 8, ptr %8) #10
  store i64 0, ptr %8, align 8, !tbaa !10
  %11 = load i8, ptr %6, align 1, !tbaa !43
  %12 = zext i8 %11 to i32
  %13 = icmp eq i32 %12, 255
  br i1 %13, label %14, label %16

14:                                               ; preds = %3
  %15 = load i64, ptr %8, align 8, !tbaa !10
  store i64 %15, ptr %4, align 8
  store i32 1, ptr %9, align 4
  br label %90

16:                                               ; preds = %3
  call void @llvm.lifetime.start.p0(i64 8, ptr %10) #10
  %17 = load ptr, ptr %5, align 8, !tbaa !63
  %18 = load ptr, ptr %17, align 8, !tbaa !42
  store ptr %18, ptr %10, align 8, !tbaa !42
  %19 = load i8, ptr %6, align 1, !tbaa !43
  %20 = zext i8 %19 to i32
  %21 = and i32 %20, 15
  switch i32 %21, label %40 [
    i32 0, label %22
    i32 1, label %24
    i32 9, label %26
    i32 2, label %28
    i32 3, label %30
    i32 4, label %32
    i32 10, label %34
    i32 11, label %36
    i32 12, label %38
  ]

22:                                               ; preds = %16
  %23 = call noundef i64 @_ZN10__cxxabiv112_GLOBAL__N_117readPointerHelperImEEmRPKh(ptr noundef nonnull align 8 dereferenceable(8) %10)
  store i64 %23, ptr %8, align 8, !tbaa !10
  br label %41

24:                                               ; preds = %16
  %25 = call noundef i64 @_ZN10__cxxabiv1L11readULEB128EPPKh(ptr noundef %10)
  store i64 %25, ptr %8, align 8, !tbaa !10
  br label %41

26:                                               ; preds = %16
  %27 = call noundef i64 @_ZN10__cxxabiv1L11readSLEB128EPPKh(ptr noundef %10)
  store i64 %27, ptr %8, align 8, !tbaa !10
  br label %41

28:                                               ; preds = %16
  %29 = call noundef i64 @_ZN10__cxxabiv112_GLOBAL__N_117readPointerHelperItEEmRPKh(ptr noundef nonnull align 8 dereferenceable(8) %10)
  store i64 %29, ptr %8, align 8, !tbaa !10
  br label %41

30:                                               ; preds = %16
  %31 = call noundef i64 @_ZN10__cxxabiv112_GLOBAL__N_117readPointerHelperIjEEmRPKh(ptr noundef nonnull align 8 dereferenceable(8) %10)
  store i64 %31, ptr %8, align 8, !tbaa !10
  br label %41

32:                                               ; preds = %16
  %33 = call noundef i64 @_ZN10__cxxabiv112_GLOBAL__N_117readPointerHelperImEEmRPKh(ptr noundef nonnull align 8 dereferenceable(8) %10)
  store i64 %33, ptr %8, align 8, !tbaa !10
  br label %41

34:                                               ; preds = %16
  %35 = call noundef i64 @_ZN10__cxxabiv112_GLOBAL__N_117readPointerHelperIsEEmRPKh(ptr noundef nonnull align 8 dereferenceable(8) %10)
  store i64 %35, ptr %8, align 8, !tbaa !10
  br label %41

36:                                               ; preds = %16
  %37 = call noundef i64 @_ZN10__cxxabiv112_GLOBAL__N_117readPointerHelperIiEEmRPKh(ptr noundef nonnull align 8 dereferenceable(8) %10)
  store i64 %37, ptr %8, align 8, !tbaa !10
  br label %41

38:                                               ; preds = %16
  %39 = call noundef i64 @_ZN10__cxxabiv112_GLOBAL__N_117readPointerHelperIlEEmRPKh(ptr noundef nonnull align 8 dereferenceable(8) %10)
  store i64 %39, ptr %8, align 8, !tbaa !10
  br label %41

40:                                               ; preds = %16
  call void @abort() #11
  unreachable

41:                                               ; preds = %38, %36, %34, %32, %30, %28, %26, %24, %22
  %42 = load i8, ptr %6, align 1, !tbaa !43
  %43 = zext i8 %42 to i32
  %44 = and i32 %43, 112
  switch i32 %44, label %73 [
    i32 0, label %74
    i32 16, label %45
    i32 48, label %55
    i32 32, label %72
    i32 64, label %72
    i32 80, label %72
  ]

45:                                               ; preds = %41
  %46 = load i64, ptr %8, align 8, !tbaa !10
  %47 = icmp ne i64 %46, 0
  br i1 %47, label %48, label %54

48:                                               ; preds = %45
  %49 = load ptr, ptr %5, align 8, !tbaa !63
  %50 = load ptr, ptr %49, align 8, !tbaa !42
  %51 = ptrtoint ptr %50 to i64
  %52 = load i64, ptr %8, align 8, !tbaa !10
  %53 = add i64 %52, %51
  store i64 %53, ptr %8, align 8, !tbaa !10
  br label %54

54:                                               ; preds = %48, %45
  br label %74

55:                                               ; preds = %41
  %56 = load i64, ptr %7, align 8, !tbaa !10
  %57 = icmp ne i64 %56, 0
  br i1 %57, label %58, label %59

58:                                               ; preds = %55
  br label %59

59:                                               ; preds = %58, %55
  %60 = phi i1 [ false, %55 ], [ true, %58 ]
  br i1 %60, label %61, label %62

61:                                               ; preds = %59
  br label %64

62:                                               ; preds = %59
  call void @__assert_fail(ptr noundef @.str.7, ptr noundef @.str.1, i32 noundef 309, ptr noundef @__PRETTY_FUNCTION__._ZN10__cxxabiv1L18readEncodedPointerEPPKhhm) #11
  unreachable

63:                                               ; No predecessors!
  br label %64

64:                                               ; preds = %63, %61
  %65 = load i64, ptr %8, align 8, !tbaa !10
  %66 = icmp ne i64 %65, 0
  br i1 %66, label %67, label %71

67:                                               ; preds = %64
  %68 = load i64, ptr %7, align 8, !tbaa !10
  %69 = load i64, ptr %8, align 8, !tbaa !10
  %70 = add i64 %69, %68
  store i64 %70, ptr %8, align 8, !tbaa !10
  br label %71

71:                                               ; preds = %67, %64
  br label %74

72:                                               ; preds = %41, %41, %41
  br label %73

73:                                               ; preds = %41, %72
  call void @abort() #11
  unreachable

74:                                               ; preds = %71, %54, %41
  %75 = load i64, ptr %8, align 8, !tbaa !10
  %76 = icmp ne i64 %75, 0
  br i1 %76, label %77, label %86

77:                                               ; preds = %74
  %78 = load i8, ptr %6, align 1, !tbaa !43
  %79 = zext i8 %78 to i32
  %80 = and i32 %79, 128
  %81 = icmp ne i32 %80, 0
  br i1 %81, label %82, label %86

82:                                               ; preds = %77
  %83 = load i64, ptr %8, align 8, !tbaa !10
  %84 = inttoptr i64 %83 to ptr
  %85 = load i64, ptr %84, align 8, !tbaa !10
  store i64 %85, ptr %8, align 8, !tbaa !10
  br label %86

86:                                               ; preds = %82, %77, %74
  %87 = load ptr, ptr %10, align 8, !tbaa !42
  %88 = load ptr, ptr %5, align 8, !tbaa !63
  store ptr %87, ptr %88, align 8, !tbaa !42
  %89 = load i64, ptr %8, align 8, !tbaa !10
  store i64 %89, ptr %4, align 8
  store i32 1, ptr %9, align 4
  call void @llvm.lifetime.end.p0(i64 8, ptr %10) #10
  br label %90

90:                                               ; preds = %86, %14
  call void @llvm.lifetime.end.p0(i64 8, ptr %8) #10
  %91 = load i64, ptr %4, align 8
  ret i64 %91
}