; Function Attrs: mustprogress nounwind uwtable
define internal fastcc noundef i64 @_ZN10__cxxabiv1L18readEncodedPointerEPPKhhm(ptr noundef nonnull captures(none) %0, i8 noundef zeroext %1, i64 noundef %2) unnamed_addr #7 {
  %4 = zext i8 %1 to i32
  %5 = icmp eq i8 %1, -1
  br i1 %5, label %62, label %6

6:                                                ; preds = %3
  %7 = load ptr, ptr %0, align 8, !tbaa !16
  %8 = and i32 %4, 15
  switch i32 %8, label %45 [
    i32 0, label %9
    i32 1, label %.preheader
    i32 9, label %.preheader44
    i32 2, label %29
    i32 3, label %32
    i32 4, label %35
    i32 10, label %37
    i32 11, label %40
    i32 12, label %43
  ]

9:                                                ; preds = %6
  %.0.copyload.i = load i64, ptr %7, align 1
  %10 = getelementptr inbounds nuw i8, ptr %7, i64 8
  br label %_ZN10__cxxabiv1L11readULEB128EPPKh.exit

.preheader:                                       ; preds = %6, %.preheader
  %.010.i = phi i64 [ %17, %.preheader ], [ 0, %6 ]
  %.09.i = phi i64 [ %16, %.preheader ], [ 0, %6 ]
  %.0.i = phi ptr [ %11, %.preheader ], [ %7, %6 ]
  %11 = getelementptr inbounds nuw i8, ptr %.0.i, i64 1
  %12 = load i8, ptr %.0.i, align 1, !tbaa !17
  %13 = and i8 %12, 127
  %14 = zext nneg i8 %13 to i64
  %15 = shl i64 %14, %.010.i
  %16 = or i64 %15, %.09.i
  %17 = add i64 %.010.i, 7
  %.not.i = icmp sgt i8 %12, -1
  br i1 %.not.i, label %_ZN10__cxxabiv1L11readULEB128EPPKh.exit, label %.preheader, !llvm.loop !18

.preheader44:                                     ; preds = %6, %.preheader44
  %.015.i = phi i64 [ %24, %.preheader44 ], [ 0, %6 ]
  %.014.i = phi i64 [ %23, %.preheader44 ], [ 0, %6 ]
  %.0.i24 = phi ptr [ %18, %.preheader44 ], [ %7, %6 ]
  %18 = getelementptr inbounds nuw i8, ptr %.0.i24, i64 1
  %19 = load i8, ptr %.0.i24, align 1, !tbaa !17
  %20 = and i8 %19, 127
  %21 = zext nneg i8 %20 to i64
  %22 = shl i64 %21, %.015.i
  %23 = or i64 %22, %.014.i
  %24 = add i64 %.015.i, 7
  %.not.i25 = icmp sgt i8 %19, -1
  br i1 %.not.i25, label %_ZN10__cxxabiv1L11readSLEB128EPPKh.exit, label %.preheader44, !llvm.loop !20

_ZN10__cxxabiv1L11readSLEB128EPPKh.exit:          ; preds = %.preheader44
  %25 = icmp samesign ugt i8 %19, 63
  %26 = icmp ult i64 %24, 64
  %or.cond.i = select i1 %25, i1 %26, i1 false
  %27 = shl nsw i64 -1, %24
  %28 = select i1 %or.cond.i, i64 %27, i64 0
  %.1.i = or i64 %23, %28
  br label %_ZN10__cxxabiv1L11readULEB128EPPKh.exit

29:                                               ; preds = %6
  %.0.copyload.i26 = load i16, ptr %7, align 1
  %30 = getelementptr inbounds nuw i8, ptr %7, i64 2
  %31 = zext i16 %.0.copyload.i26 to i64
  br label %_ZN10__cxxabiv1L11readULEB128EPPKh.exit

32:                                               ; preds = %6
  %.0.copyload.i27 = load i32, ptr %7, align 1
  %33 = getelementptr inbounds nuw i8, ptr %7, i64 4
  %34 = zext i32 %.0.copyload.i27 to i64
  br label %_ZN10__cxxabiv1L11readULEB128EPPKh.exit

35:                                               ; preds = %6
  %.0.copyload.i28 = load i64, ptr %7, align 1
  %36 = getelementptr inbounds nuw i8, ptr %7, i64 8
  br label %_ZN10__cxxabiv1L11readULEB128EPPKh.exit

37:                                               ; preds = %6
  %.0.copyload.i29 = load i16, ptr %7, align 1
  %38 = getelementptr inbounds nuw i8, ptr %7, i64 2
  %39 = sext i16 %.0.copyload.i29 to i64
  br label %_ZN10__cxxabiv1L11readULEB128EPPKh.exit

40:                                               ; preds = %6
  %.0.copyload.i30 = load i32, ptr %7, align 1
  %41 = getelementptr inbounds nuw i8, ptr %7, i64 4
  %42 = sext i32 %.0.copyload.i30 to i64
  br label %_ZN10__cxxabiv1L11readULEB128EPPKh.exit

43:                                               ; preds = %6
  %.0.copyload.i31 = load i64, ptr %7, align 1
  %44 = getelementptr inbounds nuw i8, ptr %7, i64 8
  br label %_ZN10__cxxabiv1L11readULEB128EPPKh.exit

45:                                               ; preds = %6
  tail call void @abort() #13
  unreachable

_ZN10__cxxabiv1L11readULEB128EPPKh.exit:          ; preds = %.preheader, %43, %40, %37, %35, %32, %29, %_ZN10__cxxabiv1L11readSLEB128EPPKh.exit, %9
  %.041 = phi ptr [ %44, %43 ], [ %41, %40 ], [ %38, %37 ], [ %36, %35 ], [ %33, %32 ], [ %30, %29 ], [ %18, %_ZN10__cxxabiv1L11readSLEB128EPPKh.exit ], [ %10, %9 ], [ %11, %.preheader ]
  %.0 = phi i64 [ %.0.copyload.i31, %43 ], [ %42, %40 ], [ %39, %37 ], [ %.0.copyload.i28, %35 ], [ %34, %32 ], [ %31, %29 ], [ %.1.i, %_ZN10__cxxabiv1L11readSLEB128EPPKh.exit ], [ %.0.copyload.i, %9 ], [ %16, %.preheader ]
  %46 = lshr i32 %4, 4
  %47 = and i32 %46, 7
  switch i32 %47, label %56 [
    i32 0, label %57
    i32 1, label %48
    i32 3, label %52
  ]

48:                                               ; preds = %_ZN10__cxxabiv1L11readULEB128EPPKh.exit
  %.not21 = icmp eq i64 %.0, 0
  br i1 %.not21, label %.thread, label %49

49:                                               ; preds = %48
  %50 = ptrtoint ptr %7 to i64
  %51 = add i64 %.0, %50
  br label %57

52:                                               ; preds = %_ZN10__cxxabiv1L11readULEB128EPPKh.exit
  %.not = icmp eq i64 %2, 0
  br i1 %.not, label %53, label %54

53:                                               ; preds = %52
  tail call void @__assert_fail(ptr noundef nonnull @.str.7, ptr noundef nonnull @.str.1, i32 noundef 309, ptr noundef nonnull @__PRETTY_FUNCTION__._ZN10__cxxabiv1L18readEncodedPointerEPPKhhm) #13
  unreachable

54:                                               ; preds = %52
  %.not20 = icmp eq i64 %.0, 0
  %55 = add i64 %.0, %2
  br i1 %.not20, label %.thread, label %57

56:                                               ; preds = %_ZN10__cxxabiv1L11readULEB128EPPKh.exit
  tail call void @abort() #13
  unreachable

57:                                               ; preds = %54, %49, %_ZN10__cxxabiv1L11readULEB128EPPKh.exit
  %.1 = phi i64 [ %51, %49 ], [ %.0, %_ZN10__cxxabiv1L11readULEB128EPPKh.exit ], [ %55, %54 ]
  %.not22 = icmp eq i64 %.1, 0
  br i1 %.not22, label %.thread, label %58

58:                                               ; preds = %57
  %.not23 = icmp sgt i8 %1, -1
  br i1 %.not23, label %.thread, label %59

59:                                               ; preds = %58
  %60 = inttoptr i64 %.1 to ptr
  %61 = load i64, ptr %60, align 8, !tbaa !38
  br label %.thread

.thread:                                          ; preds = %54, %48, %59, %58, %57
  %.2 = phi i64 [ %61, %59 ], [ %.1, %58 ], [ 0, %57 ], [ 0, %48 ], [ 0, %54 ]
  store ptr %.041, ptr %0, align 8, !tbaa !16
  br label %62

62:                                               ; preds = %3, %.thread
  %.017 = phi i64 [ %.2, %.thread ], [ 0, %3 ]
  ret i64 %.017
}